target datalayout = "e-m:e-p270:32:32-p271:32:32-p272:64:64-i64:64-i128:128-f80:128-n8:16:32:64-S128"
target triple = "x86_64-pc-linux-gnu"

; Function Attrs: nounwind uwtable
define internal ptr @lu_int(ptr noundef %0, ptr noundef %1, ptr noundef %2) #0 {
  %4 = alloca ptr, align 8
  %5 = alloca ptr, align 8
  %6 = alloca ptr, align 8
  %7 = alloca i64, align 8
  %8 = alloca i64, align 8
  %9 = alloca ptr, align 8
  store ptr %0, ptr %4, align 8, !tbaa !8
  store ptr %1, ptr %5, align 8, !tbaa !43
  store ptr %2, ptr %6, align 8, !tbaa !49
  call void @llvm.lifetime.start.p0(i64 8, ptr %7) #8
  store i64 0, ptr %7, align 8, !tbaa !18
  call void @llvm.lifetime.start.p0(i64 8, ptr %8) #8
  store i64 4, ptr %8, align 8, !tbaa !18
  call void @llvm.lifetime.start.p0(i64 8, ptr %9) #8
  %10 = load ptr, ptr %5, align 8, !tbaa !43
  store ptr %10, ptr %9, align 8, !tbaa !43
  br label %11

11:                                               ; preds = %21, %3
  %12 = load i64, ptr %7, align 8, !tbaa !18
  %13 = shl i64 %12, 8
  %14 = load ptr, ptr %9, align 8, !tbaa !43
  %15 = load i64, ptr %8, align 8, !tbaa !18
  %16 = add i64 %15, -1
  store i64 %16, ptr %8, align 8, !tbaa !18
  %17 = getelementptr i8, ptr %14, i64 %16
  %18 = load i8, ptr %17, align 1, !tbaa !32
  %19 = zext i8 %18 to i64
  %20 = or i64 %13, %19
  store i64 %20, ptr %7, align 8, !tbaa !18
  br label %21

21:                                               ; preds = %11
  %22 = load i64, ptr %8, align 8, !tbaa !18
  %23 = icmp sgt i64 %22, 0
  br i1 %23, label %11, label %24, !llvm.loop !118

24:                                               ; preds = %21
  %25 = load i64, ptr %7, align 8, !tbaa !18
  %26 = xor i64 %25, 2147483648
  %27 = sub i64 %26, 2147483648
  store i64 %27, ptr %7, align 8, !tbaa !18
  %28 = load i64, ptr %7, align 8, !tbaa !18
  %29 = and i64 %28, 2147483648
  %30 = icmp ne i64 %29, 0
  br i1 %30, label %31, label %35

31:                                               ; preds = %24
  %32 = load i64, ptr %7, align 8, !tbaa !18
  %33 = xor i64 %32, -1
  %34 = sub i64 -1, %33
  br label %37

35:                                               ; preds = %24
  %36 = load i64, ptr %7, align 8, !tbaa !18
  br label %37

37:                                               ; preds = %35, %31
  %38 = phi i64 [ %34, %31 ], [ %36, %35 ]
  %39 = call ptr @PyLong_FromLong(i64 noundef %38)
  call void @llvm.lifetime.end.p0(i64 8, ptr %9) #8
  call void @llvm.lifetime.end.p0(i64 8, ptr %8) #8
  call void @llvm.lifetime.end.p0(i64 8, ptr %7) #8
  ret ptr %39
}